target datalayout = "e-m:e-p270:32:32-p271:32:32-p272:64:64-i64:64-i128:128-f80:128-n8:16:32:64-S128"
target triple = "x86_64-pc-linux-gnu"

%struct.phpdbg_init_state = type { i32, i8, ptr, i64, ptr }

@.str.61 = private unnamed_addr constant [2 x i8] c"\0A\00", align 1

; Function Attrs: nounwind uwtable
define hidden void @phpdbg_string_init(ptr noundef %0) #0 {
  %2 = alloca ptr, align 8
  %3 = alloca %struct.phpdbg_init_state, align 8
  %4 = alloca ptr, align 8
  store ptr %0, ptr %2, align 8
  call void @llvm.memset.p0.i64(ptr align 8 %3, i8 0, i64 32, i1 false)
  %5 = load ptr, ptr %2, align 8
  %6 = call ptr @strtok(ptr noundef %5, ptr noundef @.str.61) #15
  store ptr %6, ptr %4, align 8
  br label %7

7:                                                ; preds = %10, %1
  %8 = load ptr, ptr %4, align 8
  %9 = icmp ne ptr %8, null
  br i1 %9, label %10, label %13

10:                                               ; preds = %7
  %11 = load ptr, ptr %4, align 8
  call void @phpdbg_line_init(ptr noundef %11, ptr noundef %3)
  %12 = call ptr @strtok(ptr noundef null, ptr noundef @.str.61) #15
  store ptr %12, ptr %4, align 8
  br label %7

13:                                               ; preds = %7
  %14 = getelementptr inbounds %struct.phpdbg_init_state, ptr %3, i32 0, i32 2
  %15 = load ptr, ptr %14, align 8
  %16 = icmp ne ptr %15, null
  br i1 %16, label %17, label %20

17:                                               ; preds = %13
  %18 = getelementptr inbounds %struct.phpdbg_init_state, ptr %3, i32 0, i32 2
  %19 = load ptr, ptr %18, align 8
  call void @free(ptr noundef %19) #15
  br label %20

20:                                               ; preds = %17, %13
  ret void
}