; Function Attrs: nounwind uwtable
define hidden void @phpdbg_string_init(ptr noundef %0) local_unnamed_addr #0 {
  %2 = alloca %struct.phpdbg_init_state, align 8
  call void @llvm.memset.p0.i64(ptr noundef nonnull align 8 dereferenceable(32) %2, i8 0, i64 32, i1 false)
  %3 = tail call ptr @strtok(ptr noundef %0, ptr noundef nonnull @.str.61) #24
  %.not5 = icmp eq ptr %3, null
  br i1 %.not5, label %._crit_edge.thread, label %.lr.ph

.lr.ph:                                           ; preds = %1, %.lr.ph
  %.06 = phi ptr [ %4, %.lr.ph ], [ %3, %1 ]
  call fastcc void @phpdbg_line_init(ptr noundef nonnull %.06, ptr noundef nonnull %2)
  %4 = tail call ptr @strtok(ptr noundef null, ptr noundef nonnull @.str.61) #24
  %.not = icmp eq ptr %4, null
  br i1 %.not, label %._crit_edge, label %.lr.ph

._crit_edge:                                      ; preds = %.lr.ph
  %.phi.trans.insert = getelementptr inbounds i8, ptr %2, i64 8
  %.pre = load ptr, ptr %.phi.trans.insert, align 8
  %.not4 = icmp eq ptr %.pre, null
  br i1 %.not4, label %._crit_edge.thread, label %5

5:                                                ; preds = %._crit_edge
  tail call void @free(ptr noundef nonnull %.pre) #24
  br label %._crit_edge.thread

._crit_edge.thread:                               ; preds = %1, %5, %._crit_edge
  ret void
}